; Function Attrs: mustprogress nounwind uwtable
define hidden void @_ZN6Assimp21OptimizeMeshesProcessC2Ev(ptr noundef nonnull align 8 dereferenceable(120) %0) unnamed_addr #0 align 2 {
  tail call void @_ZN6Assimp11BaseProcessC2Ev(ptr noundef nonnull align 8 dereferenceable(24) %0) #19
  store ptr getelementptr inbounds nuw inrange(-16, 48) (i8, ptr @_ZTVN6Assimp21OptimizeMeshesProcessE, i64 16), ptr %0, align 8
  %2 = getelementptr inbounds nuw i8, ptr %0, i64 24
  %3 = getelementptr inbounds nuw i8, ptr %0, i64 84
  tail call void @llvm.memset.p0.i64(ptr noundef nonnull align 8 dereferenceable(57) %2, i8 0, i64 57, i1 false)
  store i32 -1, ptr %3, align 4
  %4 = getelementptr inbounds nuw i8, ptr %0, i64 88
  store i32 -1, ptr %4, align 8
  %5 = getelementptr inbounds nuw i8, ptr %0, i64 96
  tail call void @llvm.memset.p0.i64(ptr noundef nonnull align 8 dereferenceable(24) %5, i8 0, i64 24, i1 false)
  ret void
}